; Function Attrs: nounwind uwtable
define void @Saig_ManBmcSectionsTest(ptr noundef %0) local_unnamed_addr #0 {
  %2 = tail call ptr @Saig_ManBmcSections(ptr noundef %0)
  %3 = getelementptr i8, ptr %2, i64 4
  %.val8 = load i32, ptr %3, align 4, !tbaa !61
  %4 = icmp sgt i32 %.val8, 0
  br i1 %4, label %.lr.ph, label %.critedge.thread

.critedge.thread:                                 ; preds = %1
  tail call void (i32, ptr, ...) @Abc_Print(i32 poison, ptr noundef nonnull @.str.2)
  %.phi.trans.insert = getelementptr inbounds nuw i8, ptr %2, i64 8
  %.pre = load ptr, ptr %.phi.trans.insert, align 8, !tbaa !23
  %.not.i9.i = icmp eq ptr %.pre, null
  br i1 %.not.i9.i, label %Vec_VecFree.exit, label %.critedge.i.thread

.lr.ph:                                           ; preds = %1
  %5 = getelementptr i8, ptr %2, i64 8
  %.val9 = load ptr, ptr %5, align 8, !tbaa !63
  %wide.trip.count = zext nneg i32 %.val8 to i64
  br label %6

6:                                                ; preds = %.lr.ph, %6
  %indvars.iv = phi i64 [ 0, %.lr.ph ], [ %indvars.iv.next, %6 ]
  %7 = getelementptr inbounds nuw ptr, ptr %.val9, i64 %indvars.iv
  %8 = load ptr, ptr %7, align 8, !tbaa !25
  %9 = getelementptr i8, ptr %8, i64 4
  %.val = load i32, ptr %9, align 4, !tbaa !32
  %10 = trunc nuw nsw i64 %indvars.iv to i32
  tail call void (i32, ptr, ...) @Abc_Print(i32 poison, ptr noundef nonnull @.str.1, i32 noundef %10, i32 noundef %.val)
  %indvars.iv.next = add nuw nsw i64 %indvars.iv, 1
  %exitcond.not = icmp eq i64 %indvars.iv.next, %wide.trip.count
  br i1 %exitcond.not, label %.critedge, label %6, !llvm.loop !64

.critedge:                                        ; preds = %6
  tail call void (i32, ptr, ...) @Abc_Print(i32 poison, ptr noundef nonnull @.str.2)
  %11 = getelementptr i8, ptr %2, i64 8
  %.val8.i = load ptr, ptr %11, align 8, !tbaa !63
  %12 = zext nneg i32 %.val8 to i64
  br label %13

13:                                               ; preds = %20, %.critedge
  %indvars.iv.i = phi i64 [ 0, %.critedge ], [ %indvars.iv.next.i, %20 ]
  %14 = getelementptr inbounds nuw ptr, ptr %.val8.i, i64 %indvars.iv.i
  %15 = load ptr, ptr %14, align 8, !tbaa !25
  %.not.i = icmp eq ptr %15, null
  br i1 %.not.i, label %20, label %16

16:                                               ; preds = %13
  %17 = getelementptr inbounds nuw i8, ptr %15, i64 8
  %18 = load ptr, ptr %17, align 8, !tbaa !23
  %.not.i.i = icmp eq ptr %18, null
  br i1 %.not.i.i, label %Vec_PtrFree.exit.i, label %19

19:                                               ; preds = %16
  tail call void @free(ptr noundef nonnull %18) #24
  br label %Vec_PtrFree.exit.i

Vec_PtrFree.exit.i:                               ; preds = %19, %16
  tail call void @free(ptr noundef nonnull %15) #24
  br label %20

20:                                               ; preds = %Vec_PtrFree.exit.i, %13
  %indvars.iv.next.i = add nuw nsw i64 %indvars.iv.i, 1
  %exitcond12.not = icmp eq i64 %indvars.iv.next.i, %12
  br i1 %exitcond12.not, label %.critedge.i.thread, label %13, !llvm.loop !65

.critedge.i.thread:                               ; preds = %20, %.critedge.thread
  %21 = phi ptr [ %.pre, %.critedge.thread ], [ %.val8.i, %20 ]
  tail call void @free(ptr noundef nonnull %21) #24
  br label %Vec_VecFree.exit

Vec_VecFree.exit:                                 ; preds = %.critedge.thread, %.critedge.i.thread
  tail call void @free(ptr noundef nonnull %2) #24
  ret void
}